; Function Attrs: inlinehint nofree norecurse nosync nounwind memory(argmem: readwrite) uwtable
define internal void @transpose_block_24_c(ptr noundef readonly captures(none) %0, i64 noundef %1, ptr noundef writeonly captures(none) %2, i64 noundef %3, i32 noundef %4, i32 noundef %5) #6 {
  %7 = icmp sgt i32 %5, 0
  %8 = icmp sgt i32 %4, 0
  %or.cond = and i1 %7, %8
  br i1 %or.cond, label %.preheader.us.preheader, label %._crit_edge33

.preheader.us.preheader:                          ; preds = %6
  %wide.trip.count39 = zext nneg i32 %5 to i64
  %wide.trip.count = zext nneg i32 %4 to i64
  br label %.preheader.us

.preheader.us:                                    ; preds = %.preheader.us.preheader, %._crit_edge.us
  %indvars.iv36 = phi i64 [ 0, %.preheader.us.preheader ], [ %indvars.iv.next37, %._crit_edge.us ]
  %.032.us = phi ptr [ %2, %.preheader.us.preheader ], [ %21, %._crit_edge.us ]
  %9 = mul nuw nsw i64 %indvars.iv36, 3
  %invariant.gep.us = getelementptr i8, ptr %0, i64 %9
  br label %10

10:                                               ; preds = %.preheader.us, %10
  %indvars.iv = phi i64 [ 0, %.preheader.us ], [ %indvars.iv.next, %10 ]
  %11 = mul nsw i64 %1, %indvars.iv
  %gep.us = getelementptr i8, ptr %invariant.gep.us, i64 %11
  %12 = load i8, ptr %gep.us, align 1, !tbaa !75
  %13 = getelementptr inbounds nuw i8, ptr %gep.us, i64 1
  %14 = load i8, ptr %13, align 1, !tbaa !75
  %15 = getelementptr inbounds nuw i8, ptr %gep.us, i64 2
  %16 = load i8, ptr %15, align 1, !tbaa !75
  %17 = mul nuw nsw i64 %indvars.iv, 3
  %18 = getelementptr inbounds nuw i8, ptr %.032.us, i64 %17
  %19 = getelementptr inbounds nuw i8, ptr %18, i64 2
  store i8 %16, ptr %19, align 1, !tbaa !75
  %20 = getelementptr inbounds nuw i8, ptr %18, i64 1
  store i8 %14, ptr %20, align 1, !tbaa !75
  store i8 %12, ptr %18, align 1, !tbaa !75
  %indvars.iv.next = add nuw nsw i64 %indvars.iv, 1
  %exitcond.not = icmp eq i64 %indvars.iv.next, %wide.trip.count
  br i1 %exitcond.not, label %._crit_edge.us, label %10, !llvm.loop !82

._crit_edge.us:                                   ; preds = %10
  %indvars.iv.next37 = add nuw nsw i64 %indvars.iv36, 1
  %21 = getelementptr inbounds i8, ptr %.032.us, i64 %3
  %exitcond40.not = icmp eq i64 %indvars.iv.next37, %wide.trip.count39
  br i1 %exitcond40.not, label %._crit_edge33, label %.preheader.us, !llvm.loop !83

._crit_edge33:                                    ; preds = %._crit_edge.us, %6
  ret void
}